target datalayout = "e-m:e-p270:32:32-p271:32:32-p272:64:64-i64:64-i128:128-f80:128-n8:16:32:64-S128"
target triple = "x86_64-pc-linux-gnu"

%struct.OperationConfig = type { i8, ptr, ptr, ptr, ptr, ptr, ptr, i8, i8, i8, i64, i8, i8, i8, i8, i8, ptr, i8, ptr, i8, ptr, i64, ptr, %struct.dynbuf, ptr, ptr, i64, i64, i64, i64, ptr, ptr, ptr, ptr, i64, i64, i16, ptr, i64, i64, i64, i64, ptr, ptr, ptr, ptr, ptr, ptr, ptr, ptr, ptr, ptr, ptr, ptr, ptr, ptr, i32, ptr, ptr, ptr, ptr, i8, ptr, i8, i8, i8, i8, i8, i8, i8, i8, i8, i8, i8, i8, i8, i8, ptr, ptr, ptr, ptr, ptr, ptr, i64, ptr, ptr, ptr, ptr, ptr, ptr, ptr, ptr, ptr, ptr, ptr, ptr, ptr, ptr, ptr, ptr, ptr, ptr, ptr, ptr, ptr, ptr, ptr, ptr, ptr, ptr, ptr, ptr, ptr, ptr, i8, ptr, ptr, ptr, ptr, i64, i8, i8, i8, i8, i8, i8, i8, i8, i8, i8, i8, i8, i8, i8, i8, i8, i8, i8, i8, i8, ptr, ptr, ptr, ptr, i64, i64, i64, i64, i64, i32, i64, ptr, ptr, ptr, ptr, ptr, ptr, ptr, ptr, i32, i64, i64, i8, i8, i8, i8, i32, ptr, i8, i64, ptr, ptr, i8, i8, i64, i8, i8, i64, i64, ptr, ptr, i32, i64, i64, i8, i8, i8, i8, i8, i8, i8, i8, i64, i64, i8, i32, i8, i64, i8, i8, i8, i8, i8, i8, i8, i8, i8, ptr, i8, ptr, i8, i8, i8, i64, i8, i8, i8, i64, i8, ptr, i8, ptr, i32, i8, ptr, ptr, ptr, %struct.State, i8, i8, ptr, ptr, ptr }
%struct.dynbuf = type { ptr, i64, i64, i64 }
%struct.State = type { ptr, ptr, ptr, ptr, ptr, ptr, i64, i64, i64, i64 }
%struct.getout = type { ptr, ptr, ptr, ptr, i32, i32 }

; Function Attrs: nounwind uwtable
define dso_local void @clean_getout(ptr noundef %0) #0 {
  %2 = alloca ptr, align 8
  %3 = alloca ptr, align 8
  %4 = alloca ptr, align 8
  store ptr %0, ptr %2, align 8, !tbaa !4
  %5 = load ptr, ptr %2, align 8, !tbaa !4
  %6 = icmp ne ptr %5, null
  br i1 %6, label %7, label %50

7:                                                ; preds = %1
  call void @llvm.lifetime.start.p0(i64 8, ptr %3) #5
  call void @llvm.lifetime.start.p0(i64 8, ptr %4) #5
  %8 = load ptr, ptr %2, align 8, !tbaa !4
  %9 = getelementptr inbounds nuw %struct.OperationConfig, ptr %8, i32 0, i32 78
  %10 = load ptr, ptr %9, align 8, !tbaa !9
  store ptr %10, ptr %4, align 8, !tbaa !24
  br label %11

11:                                               ; preds = %45, %7
  %12 = load ptr, ptr %4, align 8, !tbaa !24
  %13 = icmp ne ptr %12, null
  br i1 %13, label %14, label %47

14:                                               ; preds = %11
  %15 = load ptr, ptr %4, align 8, !tbaa !24
  %16 = getelementptr inbounds nuw %struct.getout, ptr %15, i32 0, i32 0
  %17 = load ptr, ptr %16, align 8, !tbaa !25
  store ptr %17, ptr %3, align 8, !tbaa !24
  br label %18

18:                                               ; preds = %14
  %19 = load ptr, ptr %4, align 8, !tbaa !24
  %20 = getelementptr inbounds nuw %struct.getout, ptr %19, i32 0, i32 1
  %21 = load ptr, ptr %20, align 8, !tbaa !27
  call void @free(ptr noundef %21) #5
  %22 = load ptr, ptr %4, align 8, !tbaa !24
  %23 = getelementptr inbounds nuw %struct.getout, ptr %22, i32 0, i32 1
  store ptr null, ptr %23, align 8, !tbaa !27
  br label %24

24:                                               ; preds = %18
  br label %25

25:                                               ; preds = %24
  br label %26

26:                                               ; preds = %25
  %27 = load ptr, ptr %4, align 8, !tbaa !24
  %28 = getelementptr inbounds nuw %struct.getout, ptr %27, i32 0, i32 2
  %29 = load ptr, ptr %28, align 8, !tbaa !28
  call void @free(ptr noundef %29) #5
  %30 = load ptr, ptr %4, align 8, !tbaa !24
  %31 = getelementptr inbounds nuw %struct.getout, ptr %30, i32 0, i32 2
  store ptr null, ptr %31, align 8, !tbaa !28
  br label %32

32:                                               ; preds = %26
  br label %33

33:                                               ; preds = %32
  br label %34

34:                                               ; preds = %33
  %35 = load ptr, ptr %4, align 8, !tbaa !24
  %36 = getelementptr inbounds nuw %struct.getout, ptr %35, i32 0, i32 3
  %37 = load ptr, ptr %36, align 8, !tbaa !29
  call void @free(ptr noundef %37) #5
  %38 = load ptr, ptr %4, align 8, !tbaa !24
  %39 = getelementptr inbounds nuw %struct.getout, ptr %38, i32 0, i32 3
  store ptr null, ptr %39, align 8, !tbaa !29
  br label %40

40:                                               ; preds = %34
  br label %41

41:                                               ; preds = %40
  br label %42

42:                                               ; preds = %41
  %43 = load ptr, ptr %4, align 8, !tbaa !24
  call void @free(ptr noundef %43) #5
  store ptr null, ptr %4, align 8, !tbaa !24
  br label %44

44:                                               ; preds = %42
  br label %45

45:                                               ; preds = %44
  %46 = load ptr, ptr %3, align 8, !tbaa !24
  store ptr %46, ptr %4, align 8, !tbaa !24
  br label %11, !llvm.loop !30

47:                                               ; preds = %11
  %48 = load ptr, ptr %2, align 8, !tbaa !4
  %49 = getelementptr inbounds nuw %struct.OperationConfig, ptr %48, i32 0, i32 78
  store ptr null, ptr %49, align 8, !tbaa !9
  call void @llvm.lifetime.end.p0(i64 8, ptr %4) #5
  call void @llvm.lifetime.end.p0(i64 8, ptr %3) #5
  br label %50

50:                                               ; preds = %47, %1
  %51 = load ptr, ptr %2, align 8, !tbaa !4
  call void @single_transfer_cleanup(ptr noundef %51)
  ret void
}