; Function Attrs: nounwind uwtable
define dso_local void @clean_getout(ptr noundef %0) local_unnamed_addr #0 {
  %.not = icmp eq ptr %0, null
  br i1 %.not, label %12, label %2

2:                                                ; preds = %1
  %3 = getelementptr inbounds nuw i8, ptr %0, i64 504
  %4 = load ptr, ptr %3, align 8, !tbaa !4
  %.not1516 = icmp eq ptr %4, null
  br i1 %.not1516, label %._crit_edge, label %.lr.ph

.lr.ph:                                           ; preds = %2, %.lr.ph
  %.017 = phi ptr [ %5, %.lr.ph ], [ %4, %2 ]
  %5 = load ptr, ptr %.017, align 8, !tbaa !23
  %6 = getelementptr inbounds nuw i8, ptr %.017, i64 8
  %7 = load ptr, ptr %6, align 8, !tbaa !25
  tail call void @free(ptr noundef %7) #8
  store ptr null, ptr %6, align 8, !tbaa !25
  %8 = getelementptr inbounds nuw i8, ptr %.017, i64 16
  %9 = load ptr, ptr %8, align 8, !tbaa !26
  tail call void @free(ptr noundef %9) #8
  store ptr null, ptr %8, align 8, !tbaa !26
  %10 = getelementptr inbounds nuw i8, ptr %.017, i64 24
  %11 = load ptr, ptr %10, align 8, !tbaa !27
  tail call void @free(ptr noundef %11) #8
  tail call void @free(ptr noundef nonnull %.017) #8
  %.not15 = icmp eq ptr %5, null
  br i1 %.not15, label %._crit_edge, label %.lr.ph, !llvm.loop !28

._crit_edge:                                      ; preds = %.lr.ph, %2
  store ptr null, ptr %3, align 8, !tbaa !4
  br label %12

12:                                               ; preds = %._crit_edge, %1
  tail call void @single_transfer_cleanup(ptr noundef %0) #8
  ret void
}